target datalayout = "e-m:e-p270:32:32-p271:32:32-p272:64:64-i64:64-i128:128-f80:128-n8:16:32:64-S128"
target triple = "x86_64-pc-linux-gnu"

@hf_ipmi_se_12_log_entry_action = internal global i32 0, align 4
@hf_ipmi_se_12_log_type = internal global i32 0, align 4
@hf_ipmi_se_12_diagnostic_interrupt = internal global i32 0, align 4
@hf_ipmi_se_12_oem_action = internal global i32 0, align 4
@hf_ipmi_se_12_power_cycle = internal global i32 0, align 4
@hf_ipmi_se_12_reset = internal global i32 0, align 4
@hf_ipmi_se_12_power_off = internal global i32 0, align 4
@hf_ipmi_se_12_alert = internal global i32 0, align 4
@hf_ipmi_se_12_event = internal global i32 0, align 4
@hf_ipmi_se_12_timestamp_clock_type = internal global i32 0, align 4
@ett_ipmi_se_evt_evd_byte2 = internal global i32 0, align 4
@.str.923 = private unnamed_addr constant [16 x i8] c"Log action/type\00", align 1
@.str.924 = private unnamed_addr constant [24 x i8] c"PEF Actions to be taken\00", align 1
@.str.925 = private unnamed_addr constant [8 x i8] c"Details\00", align 1

; Function Attrs: null_pointer_is_valid sspstrong uwtable
define internal zeroext i1 @ssi_12_2(ptr noundef %0, ptr noundef %1, ptr noundef %2, i32 noundef %3, i32 noundef %4, i32 noundef %5) #0 {
  %7 = alloca i1, align 1
  %8 = alloca ptr, align 8
  %9 = alloca ptr, align 8
  %10 = alloca ptr, align 8
  %11 = alloca i32, align 4
  %12 = alloca i32, align 4
  %13 = alloca i32, align 4
  %14 = alloca ptr, align 8
  %15 = alloca i32, align 4
  store ptr %0, ptr %8, align 8
  store ptr %1, ptr %9, align 8
  store ptr %2, ptr %10, align 8
  store i32 %3, ptr %11, align 4
  store i32 %4, ptr %12, align 4
  store i32 %5, ptr %13, align 4
  call void @llvm.lifetime.start.p0(i64 8, ptr %14) #5
  %16 = load i32, ptr %11, align 4
  %17 = icmp eq i32 %16, 3
  br i1 %17, label %18, label %34

18:                                               ; preds = %6
  %19 = load i32, ptr %12, align 4
  %20 = icmp eq i32 %19, 3
  br i1 %20, label %21, label %34

21:                                               ; preds = %18
  %22 = load ptr, ptr %8, align 8
  %23 = load ptr, ptr %9, align 8
  %24 = load i32, ptr @ett_ipmi_se_evt_evd_byte2, align 4
  %25 = call ptr @proto_tree_add_subtree(ptr noundef %22, ptr noundef %23, i32 noundef 0, i32 noundef 1, i32 noundef %24, ptr noundef null, ptr noundef @.str.923)
  store ptr %25, ptr %14, align 8
  %26 = load ptr, ptr %14, align 8
  %27 = load i32, ptr @hf_ipmi_se_12_log_entry_action, align 4
  %28 = load ptr, ptr %9, align 8
  %29 = call ptr @proto_tree_add_item(ptr noundef %26, i32 noundef %27, ptr noundef %28, i32 noundef 0, i32 noundef 1, i32 noundef -2147483648)
  %30 = load ptr, ptr %14, align 8
  %31 = load i32, ptr @hf_ipmi_se_12_log_type, align 4
  %32 = load ptr, ptr %9, align 8
  %33 = call ptr @proto_tree_add_item(ptr noundef %30, i32 noundef %31, ptr noundef %32, i32 noundef 0, i32 noundef 1, i32 noundef -2147483648)
  store i1 true, ptr %7, align 1
  store i32 1, ptr %15, align 4
  br label %89

34:                                               ; preds = %18, %6
  %35 = load i32, ptr %11, align 4
  %36 = icmp eq i32 %35, 3
  br i1 %36, label %37, label %69

37:                                               ; preds = %34
  %38 = load i32, ptr %12, align 4
  %39 = icmp eq i32 %38, 4
  br i1 %39, label %40, label %69

40:                                               ; preds = %37
  %41 = load ptr, ptr %8, align 8
  %42 = load ptr, ptr %9, align 8
  %43 = load i32, ptr @ett_ipmi_se_evt_evd_byte2, align 4
  %44 = call ptr @proto_tree_add_subtree(ptr noundef %41, ptr noundef %42, i32 noundef 0, i32 noundef 1, i32 noundef %43, ptr noundef null, ptr noundef @.str.924)
  store ptr %44, ptr %14, align 8
  %45 = load ptr, ptr %14, align 8
  %46 = load i32, ptr @hf_ipmi_se_12_diagnostic_interrupt, align 4
  %47 = load ptr, ptr %9, align 8
  %48 = call ptr @proto_tree_add_item(ptr noundef %45, i32 noundef %46, ptr noundef %47, i32 noundef 0, i32 noundef 1, i32 noundef 0)
  %49 = load ptr, ptr %14, align 8
  %50 = load i32, ptr @hf_ipmi_se_12_oem_action, align 4
  %51 = load ptr, ptr %9, align 8
  %52 = call ptr @proto_tree_add_item(ptr noundef %49, i32 noundef %50, ptr noundef %51, i32 noundef 0, i32 noundef 1, i32 noundef 0)
  %53 = load ptr, ptr %14, align 8
  %54 = load i32, ptr @hf_ipmi_se_12_power_cycle, align 4
  %55 = load ptr, ptr %9, align 8
  %56 = call ptr @proto_tree_add_item(ptr noundef %53, i32 noundef %54, ptr noundef %55, i32 noundef 0, i32 noundef 1, i32 noundef 0)
  %57 = load ptr, ptr %14, align 8
  %58 = load i32, ptr @hf_ipmi_se_12_reset, align 4
  %59 = load ptr, ptr %9, align 8
  %60 = call ptr @proto_tree_add_item(ptr noundef %57, i32 noundef %58, ptr noundef %59, i32 noundef 0, i32 noundef 1, i32 noundef 0)
  %61 = load ptr, ptr %14, align 8
  %62 = load i32, ptr @hf_ipmi_se_12_power_off, align 4
  %63 = load ptr, ptr %9, align 8
  %64 = call ptr @proto_tree_add_item(ptr noundef %61, i32 noundef %62, ptr noundef %63, i32 noundef 0, i32 noundef 1, i32 noundef 0)
  %65 = load ptr, ptr %14, align 8
  %66 = load i32, ptr @hf_ipmi_se_12_alert, align 4
  %67 = load ptr, ptr %9, align 8
  %68 = call ptr @proto_tree_add_item(ptr noundef %65, i32 noundef %66, ptr noundef %67, i32 noundef 0, i32 noundef 1, i32 noundef 0)
  store i1 true, ptr %7, align 1
  store i32 1, ptr %15, align 4
  br label %89

69:                                               ; preds = %37, %34
  %70 = load i32, ptr %11, align 4
  %71 = icmp eq i32 %70, 3
  br i1 %71, label %72, label %88

72:                                               ; preds = %69
  %73 = load i32, ptr %12, align 4
  %74 = icmp eq i32 %73, 5
  br i1 %74, label %75, label %88

75:                                               ; preds = %72
  %76 = load ptr, ptr %8, align 8
  %77 = load ptr, ptr %9, align 8
  %78 = load i32, ptr @ett_ipmi_se_evt_evd_byte2, align 4
  %79 = call ptr @proto_tree_add_subtree(ptr noundef %76, ptr noundef %77, i32 noundef 0, i32 noundef 1, i32 noundef %78, ptr noundef null, ptr noundef @.str.925)
  store ptr %79, ptr %14, align 8
  %80 = load ptr, ptr %14, align 8
  %81 = load i32, ptr @hf_ipmi_se_12_event, align 4
  %82 = load ptr, ptr %9, align 8
  %83 = call ptr @proto_tree_add_item(ptr noundef %80, i32 noundef %81, ptr noundef %82, i32 noundef 0, i32 noundef 1, i32 noundef 0)
  %84 = load ptr, ptr %14, align 8
  %85 = load i32, ptr @hf_ipmi_se_12_timestamp_clock_type, align 4
  %86 = load ptr, ptr %9, align 8
  %87 = call ptr @proto_tree_add_item(ptr noundef %84, i32 noundef %85, ptr noundef %86, i32 noundef 0, i32 noundef 1, i32 noundef -2147483648)
  br label %88

88:                                               ; preds = %75, %72, %69
  store i1 false, ptr %7, align 1
  store i32 1, ptr %15, align 4
  br label %89

89:                                               ; preds = %88, %40, %21
  call void @llvm.lifetime.end.p0(i64 8, ptr %14) #5
  %90 = load i1, ptr %7, align 1
  ret i1 %90
}