; Function Attrs: null_pointer_is_valid sspstrong uwtable
define internal noundef zeroext i1 @ssi_12_2(ptr noundef %0, ptr noundef %1, ptr readnone captures(none) %2, i32 noundef %3, i32 noundef %4, i32 %5) #0 {
  %7 = icmp eq i32 %3, 3
  %8 = icmp eq i32 %4, 3
  %or.cond = and i1 %7, %8
  br i1 %or.cond, label %9, label %16

9:                                                ; preds = %6
  %10 = load i32, ptr @ett_ipmi_se_evt_evd_byte2, align 4
  %11 = tail call ptr @proto_tree_add_subtree(ptr noundef %0, ptr noundef %1, i32 noundef 0, i32 noundef 1, i32 noundef %10, ptr noundef null, ptr noundef nonnull @.str.923)
  %12 = load i32, ptr @hf_ipmi_se_12_log_entry_action, align 4
  %13 = tail call ptr @proto_tree_add_item(ptr noundef %11, i32 noundef %12, ptr noundef %1, i32 noundef 0, i32 noundef 1, i32 noundef -2147483648)
  %14 = load i32, ptr @hf_ipmi_se_12_log_type, align 4
  %15 = tail call ptr @proto_tree_add_item(ptr noundef %11, i32 noundef %14, ptr noundef %1, i32 noundef 0, i32 noundef 1, i32 noundef -2147483648)
  br label %42

16:                                               ; preds = %6
  %17 = icmp eq i32 %4, 4
  %or.cond3 = and i1 %7, %17
  br i1 %or.cond3, label %18, label %33

18:                                               ; preds = %16
  %19 = load i32, ptr @ett_ipmi_se_evt_evd_byte2, align 4
  %20 = tail call ptr @proto_tree_add_subtree(ptr noundef %0, ptr noundef %1, i32 noundef 0, i32 noundef 1, i32 noundef %19, ptr noundef null, ptr noundef nonnull @.str.924)
  %21 = load i32, ptr @hf_ipmi_se_12_diagnostic_interrupt, align 4
  %22 = tail call ptr @proto_tree_add_item(ptr noundef %20, i32 noundef %21, ptr noundef %1, i32 noundef 0, i32 noundef 1, i32 noundef 0)
  %23 = load i32, ptr @hf_ipmi_se_12_oem_action, align 4
  %24 = tail call ptr @proto_tree_add_item(ptr noundef %20, i32 noundef %23, ptr noundef %1, i32 noundef 0, i32 noundef 1, i32 noundef 0)
  %25 = load i32, ptr @hf_ipmi_se_12_power_cycle, align 4
  %26 = tail call ptr @proto_tree_add_item(ptr noundef %20, i32 noundef %25, ptr noundef %1, i32 noundef 0, i32 noundef 1, i32 noundef 0)
  %27 = load i32, ptr @hf_ipmi_se_12_reset, align 4
  %28 = tail call ptr @proto_tree_add_item(ptr noundef %20, i32 noundef %27, ptr noundef %1, i32 noundef 0, i32 noundef 1, i32 noundef 0)
  %29 = load i32, ptr @hf_ipmi_se_12_power_off, align 4
  %30 = tail call ptr @proto_tree_add_item(ptr noundef %20, i32 noundef %29, ptr noundef %1, i32 noundef 0, i32 noundef 1, i32 noundef 0)
  %31 = load i32, ptr @hf_ipmi_se_12_alert, align 4
  %32 = tail call ptr @proto_tree_add_item(ptr noundef %20, i32 noundef %31, ptr noundef %1, i32 noundef 0, i32 noundef 1, i32 noundef 0)
  br label %42

33:                                               ; preds = %16
  %34 = icmp eq i32 %4, 5
  %or.cond5 = and i1 %7, %34
  br i1 %or.cond5, label %35, label %42

35:                                               ; preds = %33
  %36 = load i32, ptr @ett_ipmi_se_evt_evd_byte2, align 4
  %37 = tail call ptr @proto_tree_add_subtree(ptr noundef %0, ptr noundef %1, i32 noundef 0, i32 noundef 1, i32 noundef %36, ptr noundef null, ptr noundef nonnull @.str.925)
  %38 = load i32, ptr @hf_ipmi_se_12_event, align 4
  %39 = tail call ptr @proto_tree_add_item(ptr noundef %37, i32 noundef %38, ptr noundef %1, i32 noundef 0, i32 noundef 1, i32 noundef 0)
  %40 = load i32, ptr @hf_ipmi_se_12_timestamp_clock_type, align 4
  %41 = tail call ptr @proto_tree_add_item(ptr noundef %37, i32 noundef %40, ptr noundef %1, i32 noundef 0, i32 noundef 1, i32 noundef -2147483648)
  br label %42

42:                                               ; preds = %33, %35, %18, %9
  %.0 = phi i1 [ true, %9 ], [ true, %18 ], [ false, %35 ], [ false, %33 ]
  ret i1 %.0
}